target datalayout = "e-m:e-p270:32:32-p271:32:32-p272:64:64-i64:64-i128:128-f80:128-n8:16:32:64-S128"
target triple = "x86_64-pc-linux-gnu"

%struct.BIO_ASN1_EX_FUNCS_st = type { ptr, ptr }

; Function Attrs: nounwind uwtable
define internal i32 @asn1_bio_get_ex(ptr noundef %0, i32 noundef %1, ptr noundef %2, ptr noundef %3) #0 {
  %5 = alloca ptr, align 8
  %6 = alloca i32, align 4
  %7 = alloca ptr, align 8
  %8 = alloca ptr, align 8
  %9 = alloca %struct.BIO_ASN1_EX_FUNCS_st, align 8
  %10 = alloca i32, align 4
  store ptr %0, ptr %5, align 8, !tbaa !6
  store i32 %1, ptr %6, align 4, !tbaa !12
  store ptr %2, ptr %7, align 8, !tbaa !11
  store ptr %3, ptr %8, align 8, !tbaa !11
  call void @llvm.lifetime.start.p0(i64 16, ptr %9) #6
  call void @llvm.lifetime.start.p0(i64 4, ptr %10) #6
  %11 = load ptr, ptr %5, align 8, !tbaa !6
  %12 = load i32, ptr %6, align 4, !tbaa !12
  %13 = call i64 @BIO_ctrl(ptr noundef %11, i32 noundef %12, i64 noundef 0, ptr noundef %9)
  %14 = trunc i64 %13 to i32
  store i32 %14, ptr %10, align 4, !tbaa !12
  %15 = load i32, ptr %10, align 4, !tbaa !12
  %16 = icmp sgt i32 %15, 0
  br i1 %16, label %17, label %24

17:                                               ; preds = %4
  %18 = getelementptr inbounds nuw %struct.BIO_ASN1_EX_FUNCS_st, ptr %9, i32 0, i32 0
  %19 = load ptr, ptr %18, align 8, !tbaa !14
  %20 = load ptr, ptr %7, align 8, !tbaa !11
  store ptr %19, ptr %20, align 8, !tbaa !11
  %21 = getelementptr inbounds nuw %struct.BIO_ASN1_EX_FUNCS_st, ptr %9, i32 0, i32 1
  %22 = load ptr, ptr %21, align 8, !tbaa !16
  %23 = load ptr, ptr %8, align 8, !tbaa !11
  store ptr %22, ptr %23, align 8, !tbaa !11
  br label %24

24:                                               ; preds = %17, %4
  %25 = load i32, ptr %10, align 4, !tbaa !12
  call void @llvm.lifetime.end.p0(i64 4, ptr %10) #6
  call void @llvm.lifetime.end.p0(i64 16, ptr %9) #6
  ret i32 %25
}

; Function Attrs: nounwind uwtable
define hidden i32 @BIO_asn1_get_suffix(ptr noundef %0, ptr noundef %1, ptr noundef %2) #0 {
  %4 = alloca ptr, align 8
  %5 = alloca ptr, align 8
  %6 = alloca ptr, align 8
  store ptr %0, ptr %4, align 8, !tbaa !6
  store ptr %1, ptr %5, align 8, !tbaa !11
  store ptr %2, ptr %6, align 8, !tbaa !11
  %7 = load ptr, ptr %4, align 8, !tbaa !6
  %8 = load ptr, ptr %5, align 8, !tbaa !11
  %9 = load ptr, ptr %6, align 8, !tbaa !11
  %10 = call i32 @asn1_bio_get_ex(ptr noundef %7, i32 noundef 152, ptr noundef %8, ptr noundef %9)
  ret i32 %10
}